; Function Attrs: mustprogress uwtable
define hidden void @_ZN7datalog22rule_subsumption_index3addEPNS_4ruleE(ptr noundef nonnull align 8 dereferenceable(72) %0, ptr noundef %1) local_unnamed_addr #3 align 2 {
  %3 = alloca ptr, align 8
  %4 = getelementptr inbounds nuw i8, ptr %0, i64 8
  %5 = load ptr, ptr %4, align 8, !tbaa !46
  tail call void @_ZN7datalog12rule_manager7inc_refEPNS_4ruleE(ptr noundef nonnull align 8 dereferenceable(1104) %5, ptr noundef %1)
  %6 = getelementptr inbounds nuw i8, ptr %0, i64 16
  %7 = load ptr, ptr %6, align 8, !tbaa !49
  %8 = icmp eq ptr %7, null
  br i1 %8, label %15, label %9

9:                                                ; preds = %2
  %10 = getelementptr inbounds i8, ptr %7, i64 -4
  %11 = load i32, ptr %10, align 4, !tbaa !53
  %12 = getelementptr inbounds i8, ptr %7, i64 -8
  %13 = load i32, ptr %12, align 4, !tbaa !53
  %14 = icmp eq i32 %11, %13
  br i1 %14, label %15, label %_ZN15ref_vector_coreIN7datalog4ruleE19ref_manager_wrapperIS1_NS0_12rule_managerEEE9push_backEPS1_.exit

15:                                               ; preds = %9, %2
  tail call void @_ZN6vectorIPN7datalog4ruleELb0EjE13expand_vectorEv(ptr noundef nonnull align 8 dereferenceable(8) %6)
  %.pre.i.i = load ptr, ptr %6, align 8, !tbaa !49
  %.phi.trans.insert.i.i = getelementptr inbounds i8, ptr %.pre.i.i, i64 -4
  %.pre2.i.i = load i32, ptr %.phi.trans.insert.i.i, align 4, !tbaa !53
  br label %_ZN15ref_vector_coreIN7datalog4ruleE19ref_manager_wrapperIS1_NS0_12rule_managerEEE9push_backEPS1_.exit

_ZN15ref_vector_coreIN7datalog4ruleE19ref_manager_wrapperIS1_NS0_12rule_managerEEE9push_backEPS1_.exit: ; preds = %9, %15
  %16 = phi i32 [ %.pre2.i.i, %15 ], [ %11, %9 ]
  %17 = phi ptr [ %.pre.i.i, %15 ], [ %7, %9 ]
  %18 = getelementptr inbounds i8, ptr %17, i64 -4
  %19 = zext i32 %16 to i64
  %20 = getelementptr inbounds nuw ptr, ptr %17, i64 %19
  store ptr %1, ptr %20, align 8, !tbaa !54
  %21 = add i32 %16, 1
  store i32 %21, ptr %18, align 4, !tbaa !53
  %22 = getelementptr inbounds nuw i8, ptr %1, i64 56
  %23 = load i32, ptr %22, align 8, !tbaa !55
  %24 = icmp eq i32 %23, 0
  br i1 %24, label %25, label %26

25:                                               ; preds = %_ZN15ref_vector_coreIN7datalog4ruleE19ref_manager_wrapperIS1_NS0_12rule_managerEEE9push_backEPS1_.exit
  tail call void @_ZN7datalog22rule_subsumption_index25handle_unconditioned_ruleEPNS_4ruleE(ptr noundef nonnull align 8 dereferenceable(72) %0, ptr noundef nonnull %1)
  br label %26

26:                                               ; preds = %25, %_ZN15ref_vector_coreIN7datalog4ruleE19ref_manager_wrapperIS1_NS0_12rule_managerEEE9push_backEPS1_.exit
  %27 = getelementptr inbounds nuw i8, ptr %0, i64 48
  call void @llvm.lifetime.start.p0(i64 8, ptr nonnull %3) #16
  store ptr %1, ptr %3, align 8, !tbaa !54
  call void @_ZN14core_hashtableI18default_hash_entryIPN7datalog4ruleEENS1_14rule_hash_procENS1_12rule_eq_procEE6insertEOS3_(ptr noundef nonnull align 8 dereferenceable(20) %27, ptr noundef nonnull align 8 dereferenceable(8) %3)
  call void @llvm.lifetime.end.p0(i64 8, ptr nonnull %3) #16
  ret void
}